target datalayout = "e-m:e-p270:32:32-p271:32:32-p272:64:64-i64:64-i128:128-f80:128-n8:16:32:64-S128"
target triple = "x86_64-pc-linux-gnu"

%struct.ComponentIDs = type { ptr, ptr, ptr, ptr, ptr, ptr, ptr, ptr, ptr, ptr, ptr, ptr, ptr, ptr }
%struct.X11GraphicsConfigIDs = type { ptr, ptr }
%struct.jawt_DrawingSurface = type { ptr, ptr, ptr, ptr, ptr, ptr }
%struct.JNINativeInterface_ = type { ptr, ptr, ptr, ptr, ptr, ptr, ptr, ptr, ptr, ptr, ptr, ptr, ptr, ptr, ptr, ptr, ptr, ptr, ptr, ptr, ptr, ptr, ptr, ptr, ptr, ptr, ptr, ptr, ptr, ptr, ptr, ptr, ptr, ptr, ptr, ptr, ptr, ptr, ptr, ptr, ptr, ptr, ptr, ptr, ptr, ptr, ptr, ptr, ptr, ptr, ptr, ptr, ptr, ptr, ptr, ptr, ptr, ptr, ptr, ptr, ptr, ptr, ptr, ptr, ptr, ptr, ptr, ptr, ptr, ptr, ptr, ptr, ptr, ptr, ptr, ptr, ptr, ptr, ptr, ptr, ptr, ptr, ptr, ptr, ptr, ptr, ptr, ptr, ptr, ptr, ptr, ptr, ptr, ptr, ptr, ptr, ptr, ptr, ptr, ptr, ptr, ptr, ptr, ptr, ptr, ptr, ptr, ptr, ptr, ptr, ptr, ptr, ptr, ptr, ptr, ptr, ptr, ptr, ptr, ptr, ptr, ptr, ptr, ptr, ptr, ptr, ptr, ptr, ptr, ptr, ptr, ptr, ptr, ptr, ptr, ptr, ptr, ptr, ptr, ptr, ptr, ptr, ptr, ptr, ptr, ptr, ptr, ptr, ptr, ptr, ptr, ptr, ptr, ptr, ptr, ptr, ptr, ptr, ptr, ptr, ptr, ptr, ptr, ptr, ptr, ptr, ptr, ptr, ptr, ptr, ptr, ptr, ptr, ptr, ptr, ptr, ptr, ptr, ptr, ptr, ptr, ptr, ptr, ptr, ptr, ptr, ptr, ptr, ptr, ptr, ptr, ptr, ptr, ptr, ptr, ptr, ptr, ptr, ptr, ptr, ptr, ptr, ptr, ptr, ptr, ptr, ptr, ptr, ptr, ptr, ptr, ptr, ptr, ptr, ptr, ptr, ptr, ptr, ptr, ptr, ptr, ptr, ptr, ptr, ptr, ptr, ptr, ptr, ptr, ptr, ptr, ptr, ptr, ptr, ptr }
%struct.anon = type { ptr, ptr, i32, i32, i32, i32, ptr, i64, i64, i64, i32, ptr, i32, i32, i32, i32, i32, ptr, i32, i32, ptr, ptr, i32, i64, i64, ptr, ptr, ptr, ptr, i32, ptr, ptr, ptr, i32, i32, ptr, i64, i64, i32, i32, ptr, ptr, i32, ptr }
%struct._AwtGraphicsConfigData = type { i32, i64, %struct.XVisualInfo, i32, ptr, ptr, ptr, i64, i32, i32, ptr, i32, ptr, ptr, i32, %struct.XRenderPictFormat }
%struct.XVisualInfo = type { ptr, i64, i32, i32, i32, i64, i64, i64, i32, i32 }
%struct.XRenderPictFormat = type { i64, i32, i32, %struct.XRenderDirectFormat, i64 }
%struct.XRenderDirectFormat = type { i16, i16, i16, i16, i16, i16, i16, i16 }

@.str = private unnamed_addr constant [19 x i8] c"java/awt/Component\00", align 1
@awtLockInited = external global i8, align 1
@tkClass = external global ptr, align 8
@awtLockMID = external global ptr, align 8
@componentIDs = external global %struct.ComponentIDs, align 8
@awtUnlockMID = external global ptr, align 8
@graphicsConfigID = external global ptr, align 8
@x11GraphicsConfigIDs = external global %struct.X11GraphicsConfigIDs, align 8
@awt_display = external global ptr, align 8

; Function Attrs: nounwind uwtable
define i32 @awt_GetColor(ptr noundef %0, i32 noundef %1, i32 noundef %2, i32 noundef %3) #0 {
  %5 = alloca i32, align 4
  %6 = alloca ptr, align 8
  %7 = alloca i32, align 4
  %8 = alloca i32, align 4
  %9 = alloca i32, align 4
  %10 = alloca ptr, align 8
  %11 = alloca ptr, align 8
  %12 = alloca ptr, align 8
  %13 = alloca ptr, align 8
  %14 = alloca ptr, align 8
  %15 = alloca i32, align 4
  %16 = alloca ptr, align 8
  %17 = alloca ptr, align 8
  %18 = alloca ptr, align 8
  store ptr %0, ptr %6, align 8
  store i32 %1, ptr %7, align 4
  store i32 %2, ptr %8, align 4
  store i32 %3, ptr %9, align 4
  %19 = load ptr, ptr %6, align 8
  %20 = icmp eq ptr %19, null
  br i1 %20, label %21, label %22

21:                                               ; preds = %4
  store i32 0, ptr %5, align 4
  br label %240

22:                                               ; preds = %4
  %23 = load ptr, ptr %6, align 8
  %24 = getelementptr inbounds %struct.jawt_DrawingSurface, ptr %23, i32 0, i32 0
  %25 = load ptr, ptr %24, align 8
  store ptr %25, ptr %10, align 8
  %26 = load ptr, ptr %6, align 8
  %27 = getelementptr inbounds %struct.jawt_DrawingSurface, ptr %26, i32 0, i32 1
  %28 = load ptr, ptr %27, align 8
  store ptr %28, ptr %11, align 8
  %29 = load ptr, ptr %10, align 8
  %30 = load ptr, ptr %29, align 8
  %31 = getelementptr inbounds %struct.JNINativeInterface_, ptr %30, i32 0, i32 6
  %32 = load ptr, ptr %31, align 8
  %33 = load ptr, ptr %10, align 8
  %34 = call ptr %32(ptr noundef %33, ptr noundef @.str)
  store ptr %34, ptr %13, align 8
  br label %35

35:                                               ; preds = %22
  %36 = load ptr, ptr %13, align 8
  %37 = icmp eq ptr %36, null
  br i1 %37, label %38, label %39

38:                                               ; preds = %35
  store i32 0, ptr %5, align 4
  br label %240

39:                                               ; preds = %35
  br label %40

40:                                               ; preds = %39
  %41 = load ptr, ptr %10, align 8
  %42 = load ptr, ptr %41, align 8
  %43 = getelementptr inbounds %struct.JNINativeInterface_, ptr %42, i32 0, i32 32
  %44 = load ptr, ptr %43, align 8
  %45 = load ptr, ptr %10, align 8
  %46 = load ptr, ptr %11, align 8
  %47 = load ptr, ptr %13, align 8
  %48 = call zeroext i8 %44(ptr noundef %45, ptr noundef %46, ptr noundef %47)
  %49 = icmp ne i8 %48, 0
  br i1 %49, label %51, label %50

50:                                               ; preds = %40
  store i32 0, ptr %5, align 4
  br label %240

51:                                               ; preds = %40
  %52 = load i8, ptr @awtLockInited, align 1
  %53 = icmp ne i8 %52, 0
  br i1 %53, label %55, label %54

54:                                               ; preds = %51
  store i32 0, ptr %5, align 4
  br label %240

55:                                               ; preds = %51
  br label %56

56:                                               ; preds = %55
  %57 = load ptr, ptr %10, align 8
  %58 = load ptr, ptr %57, align 8
  %59 = getelementptr inbounds %struct.JNINativeInterface_, ptr %58, i32 0, i32 228
  %60 = load ptr, ptr %59, align 8
  %61 = load ptr, ptr %10, align 8
  %62 = call zeroext i8 %60(ptr noundef %61)
  %63 = icmp ne i8 %62, 0
  br i1 %63, label %64, label %70

64:                                               ; preds = %56
  %65 = load ptr, ptr %10, align 8
  %66 = load ptr, ptr %65, align 8
  %67 = getelementptr inbounds %struct.JNINativeInterface_, ptr %66, i32 0, i32 17
  %68 = load ptr, ptr %67, align 8
  %69 = load ptr, ptr %10, align 8
  call void %68(ptr noundef %69)
  br label %70

70:                                               ; preds = %64, %56
  %71 = load ptr, ptr %10, align 8
  %72 = load ptr, ptr %71, align 8
  %73 = getelementptr inbounds %struct.JNINativeInterface_, ptr %72, i32 0, i32 141
  %74 = load ptr, ptr %73, align 8
  %75 = load ptr, ptr %10, align 8
  %76 = load ptr, ptr @tkClass, align 8
  %77 = load ptr, ptr @awtLockMID, align 8
  call void (ptr, ptr, ptr, ...) %74(ptr noundef %75, ptr noundef %76, ptr noundef %77)
  %78 = load ptr, ptr %10, align 8
  %79 = load ptr, ptr %78, align 8
  %80 = getelementptr inbounds %struct.JNINativeInterface_, ptr %79, i32 0, i32 228
  %81 = load ptr, ptr %80, align 8
  %82 = load ptr, ptr %10, align 8
  %83 = call zeroext i8 %81(ptr noundef %82)
  %84 = icmp ne i8 %83, 0
  br i1 %84, label %85, label %91

85:                                               ; preds = %70
  %86 = load ptr, ptr %10, align 8
  %87 = load ptr, ptr %86, align 8
  %88 = getelementptr inbounds %struct.JNINativeInterface_, ptr %87, i32 0, i32 17
  %89 = load ptr, ptr %88, align 8
  %90 = load ptr, ptr %10, align 8
  call void %89(ptr noundef %90)
  br label %91

91:                                               ; preds = %85, %70
  br label %92

92:                                               ; preds = %91
  %93 = load ptr, ptr %10, align 8
  %94 = load ptr, ptr %93, align 8
  %95 = getelementptr inbounds %struct.JNINativeInterface_, ptr %94, i32 0, i32 95
  %96 = load ptr, ptr %95, align 8
  %97 = load ptr, ptr %10, align 8
  %98 = load ptr, ptr %11, align 8
  %99 = load ptr, ptr getelementptr inbounds (%struct.ComponentIDs, ptr @componentIDs, i32 0, i32 4), align 8
  %100 = call ptr %96(ptr noundef %97, ptr noundef %98, ptr noundef %99)
  store ptr %100, ptr %12, align 8
  %101 = load ptr, ptr %12, align 8
  %102 = icmp eq ptr %101, null
  br i1 %102, label %103, label %154

103:                                              ; preds = %92
  br label %104

104:                                              ; preds = %103
  call void (...) @awt_output_flush()
  br label %105

105:                                              ; preds = %104
  %106 = load ptr, ptr %10, align 8
  %107 = load ptr, ptr %106, align 8
  %108 = getelementptr inbounds %struct.JNINativeInterface_, ptr %107, i32 0, i32 15
  %109 = load ptr, ptr %108, align 8
  %110 = load ptr, ptr %10, align 8
  %111 = call ptr %109(ptr noundef %110)
  store ptr %111, ptr %17, align 8
  %112 = icmp ne ptr %111, null
  br i1 %112, label %113, label %119

113:                                              ; preds = %105
  %114 = load ptr, ptr %10, align 8
  %115 = load ptr, ptr %114, align 8
  %116 = getelementptr inbounds %struct.JNINativeInterface_, ptr %115, i32 0, i32 17
  %117 = load ptr, ptr %116, align 8
  %118 = load ptr, ptr %10, align 8
  call void %117(ptr noundef %118)
  br label %119

119:                                              ; preds = %113, %105
  %120 = load ptr, ptr %10, align 8
  %121 = load ptr, ptr %120, align 8
  %122 = getelementptr inbounds %struct.JNINativeInterface_, ptr %121, i32 0, i32 141
  %123 = load ptr, ptr %122, align 8
  %124 = load ptr, ptr %10, align 8
  %125 = load ptr, ptr @tkClass, align 8
  %126 = load ptr, ptr @awtUnlockMID, align 8
  call void (ptr, ptr, ptr, ...) %123(ptr noundef %124, ptr noundef %125, ptr noundef %126)
  %127 = load ptr, ptr %10, align 8
  %128 = load ptr, ptr %127, align 8
  %129 = getelementptr inbounds %struct.JNINativeInterface_, ptr %128, i32 0, i32 228
  %130 = load ptr, ptr %129, align 8
  %131 = load ptr, ptr %10, align 8
  %132 = call zeroext i8 %130(ptr noundef %131)
  %133 = icmp ne i8 %132, 0
  br i1 %133, label %134, label %140

134:                                              ; preds = %119
  %135 = load ptr, ptr %10, align 8
  %136 = load ptr, ptr %135, align 8
  %137 = getelementptr inbounds %struct.JNINativeInterface_, ptr %136, i32 0, i32 17
  %138 = load ptr, ptr %137, align 8
  %139 = load ptr, ptr %10, align 8
  call void %138(ptr noundef %139)
  br label %140

140:                                              ; preds = %134, %119
  %141 = load ptr, ptr %17, align 8
  %142 = icmp ne ptr %141, null
  br i1 %142, label %143, label %151

143:                                              ; preds = %140
  %144 = load ptr, ptr %10, align 8
  %145 = load ptr, ptr %144, align 8
  %146 = getelementptr inbounds %struct.JNINativeInterface_, ptr %145, i32 0, i32 13
  %147 = load ptr, ptr %146, align 8
  %148 = load ptr, ptr %10, align 8
  %149 = load ptr, ptr %17, align 8
  %150 = call i32 %147(ptr noundef %148, ptr noundef %149)
  br label %151

151:                                              ; preds = %143, %140
  br label %152

152:                                              ; preds = %151
  br label %153

153:                                              ; preds = %152
  store i32 0, ptr %5, align 4
  br label %240

154:                                              ; preds = %92
  %155 = load ptr, ptr %10, align 8
  %156 = load ptr, ptr %155, align 8
  %157 = getelementptr inbounds %struct.JNINativeInterface_, ptr %156, i32 0, i32 95
  %158 = load ptr, ptr %157, align 8
  %159 = load ptr, ptr %10, align 8
  %160 = load ptr, ptr %12, align 8
  %161 = load ptr, ptr @graphicsConfigID, align 8
  %162 = call ptr %158(ptr noundef %159, ptr noundef %160, ptr noundef %161)
  store ptr %162, ptr %16, align 8
  %163 = load ptr, ptr %16, align 8
  %164 = icmp ne ptr %163, null
  br i1 %164, label %165, label %175

165:                                              ; preds = %154
  %166 = load ptr, ptr %10, align 8
  %167 = load ptr, ptr %166, align 8
  %168 = getelementptr inbounds %struct.JNINativeInterface_, ptr %167, i32 0, i32 101
  %169 = load ptr, ptr %168, align 8
  %170 = load ptr, ptr %10, align 8
  %171 = load ptr, ptr %16, align 8
  %172 = load ptr, ptr @x11GraphicsConfigIDs, align 8
  %173 = call i64 %169(ptr noundef %170, ptr noundef %171, ptr noundef %172)
  %174 = inttoptr i64 %173 to ptr
  store ptr %174, ptr %14, align 8
  br label %180

175:                                              ; preds = %154
  %176 = load ptr, ptr @awt_display, align 8
  %177 = getelementptr inbounds %struct.anon, ptr %176, i32 0, i32 33
  %178 = load i32, ptr %177, align 8
  %179 = call ptr @getDefaultConfig(i32 noundef %178)
  store ptr %179, ptr %14, align 8
  br label %180

180:                                              ; preds = %175, %165
  %181 = load ptr, ptr %14, align 8
  %182 = getelementptr inbounds %struct._AwtGraphicsConfigData, ptr %181, i32 0, i32 5
  %183 = load ptr, ptr %182, align 8
  %184 = load i32, ptr %7, align 4
  %185 = load i32, ptr %8, align 4
  %186 = load i32, ptr %9, align 4
  %187 = load ptr, ptr %14, align 8
  %188 = call i32 %183(i32 noundef %184, i32 noundef %185, i32 noundef %186, ptr noundef %187)
  store i32 %188, ptr %15, align 4
  br label %189

189:                                              ; preds = %180
  call void (...) @awt_output_flush()
  br label %190

190:                                              ; preds = %189
  %191 = load ptr, ptr %10, align 8
  %192 = load ptr, ptr %191, align 8
  %193 = getelementptr inbounds %struct.JNINativeInterface_, ptr %192, i32 0, i32 15
  %194 = load ptr, ptr %193, align 8
  %195 = load ptr, ptr %10, align 8
  %196 = call ptr %194(ptr noundef %195)
  store ptr %196, ptr %18, align 8
  %197 = icmp ne ptr %196, null
  br i1 %197, label %198, label %204

198:                                              ; preds = %190
  %199 = load ptr, ptr %10, align 8
  %200 = load ptr, ptr %199, align 8
  %201 = getelementptr inbounds %struct.JNINativeInterface_, ptr %200, i32 0, i32 17
  %202 = load ptr, ptr %201, align 8
  %203 = load ptr, ptr %10, align 8
  call void %202(ptr noundef %203)
  br label %204

204:                                              ; preds = %198, %190
  %205 = load ptr, ptr %10, align 8
  %206 = load ptr, ptr %205, align 8
  %207 = getelementptr inbounds %struct.JNINativeInterface_, ptr %206, i32 0, i32 141
  %208 = load ptr, ptr %207, align 8
  %209 = load ptr, ptr %10, align 8
  %210 = load ptr, ptr @tkClass, align 8
  %211 = load ptr, ptr @awtUnlockMID, align 8
  call void (ptr, ptr, ptr, ...) %208(ptr noundef %209, ptr noundef %210, ptr noundef %211)
  %212 = load ptr, ptr %10, align 8
  %213 = load ptr, ptr %212, align 8
  %214 = getelementptr inbounds %struct.JNINativeInterface_, ptr %213, i32 0, i32 228
  %215 = load ptr, ptr %214, align 8
  %216 = load ptr, ptr %10, align 8
  %217 = call zeroext i8 %215(ptr noundef %216)
  %218 = icmp ne i8 %217, 0
  br i1 %218, label %219, label %225

219:                                              ; preds = %204
  %220 = load ptr, ptr %10, align 8
  %221 = load ptr, ptr %220, align 8
  %222 = getelementptr inbounds %struct.JNINativeInterface_, ptr %221, i32 0, i32 17
  %223 = load ptr, ptr %222, align 8
  %224 = load ptr, ptr %10, align 8
  call void %223(ptr noundef %224)
  br label %225

225:                                              ; preds = %219, %204
  %226 = load ptr, ptr %18, align 8
  %227 = icmp ne ptr %226, null
  br i1 %227, label %228, label %236

228:                                              ; preds = %225
  %229 = load ptr, ptr %10, align 8
  %230 = load ptr, ptr %229, align 8
  %231 = getelementptr inbounds %struct.JNINativeInterface_, ptr %230, i32 0, i32 13
  %232 = load ptr, ptr %231, align 8
  %233 = load ptr, ptr %10, align 8
  %234 = load ptr, ptr %18, align 8
  %235 = call i32 %232(ptr noundef %233, ptr noundef %234)
  br label %236

236:                                              ; preds = %228, %225
  br label %237

237:                                              ; preds = %236
  br label %238

238:                                              ; preds = %237
  %239 = load i32, ptr %15, align 4
  store i32 %239, ptr %5, align 4
  br label %240

240:                                              ; preds = %238, %153, %54, %50, %38, %21
  %241 = load i32, ptr %5, align 4
  ret i32 %241
}