; Function Attrs: nounwind uwtable
define i32 @awt_GetColor(ptr noundef readonly %0, i32 noundef %1, i32 noundef %2, i32 noundef %3) #0 {
  %5 = icmp eq ptr %0, null
  br i1 %5, label %124, label %6

6:                                                ; preds = %4
  %7 = load ptr, ptr %0, align 8
  %8 = getelementptr inbounds i8, ptr %0, i64 8
  %9 = load ptr, ptr %8, align 8
  %10 = load ptr, ptr %7, align 8
  %11 = getelementptr inbounds i8, ptr %10, i64 48
  %12 = load ptr, ptr %11, align 8
  %13 = tail call ptr %12(ptr noundef nonnull %7, ptr noundef nonnull @.str) #5
  %14 = icmp eq ptr %13, null
  br i1 %14, label %124, label %15

15:                                               ; preds = %6
  %16 = load ptr, ptr %7, align 8
  %17 = getelementptr inbounds i8, ptr %16, i64 256
  %18 = load ptr, ptr %17, align 8
  %19 = tail call zeroext i8 %18(ptr noundef nonnull %7, ptr noundef %9, ptr noundef nonnull %13) #5
  %.not = icmp eq i8 %19, 0
  %20 = load i8, ptr @awtLockInited, align 1
  %.not72 = icmp eq i8 %20, 0
  %or.cond = select i1 %.not, i1 true, i1 %.not72
  br i1 %or.cond, label %124, label %21

21:                                               ; preds = %15
  %22 = load ptr, ptr %7, align 8
  %23 = getelementptr inbounds i8, ptr %22, i64 1824
  %24 = load ptr, ptr %23, align 8
  %25 = tail call zeroext i8 %24(ptr noundef nonnull %7) #5
  %.not73 = icmp eq i8 %25, 0
  br i1 %.not73, label %30, label %26

26:                                               ; preds = %21
  %27 = load ptr, ptr %7, align 8
  %28 = getelementptr inbounds i8, ptr %27, i64 136
  %29 = load ptr, ptr %28, align 8
  tail call void %29(ptr noundef nonnull %7) #5
  br label %30

30:                                               ; preds = %26, %21
  %31 = load ptr, ptr %7, align 8
  %32 = getelementptr inbounds i8, ptr %31, i64 1128
  %33 = load ptr, ptr %32, align 8
  %34 = load ptr, ptr @tkClass, align 8
  %35 = load ptr, ptr @awtLockMID, align 8
  tail call void (ptr, ptr, ptr, ...) %33(ptr noundef nonnull %7, ptr noundef %34, ptr noundef %35) #5
  %36 = load ptr, ptr %7, align 8
  %37 = getelementptr inbounds i8, ptr %36, i64 1824
  %38 = load ptr, ptr %37, align 8
  %39 = tail call zeroext i8 %38(ptr noundef nonnull %7) #5
  %.not74 = icmp eq i8 %39, 0
  br i1 %.not74, label %44, label %40

40:                                               ; preds = %30
  %41 = load ptr, ptr %7, align 8
  %42 = getelementptr inbounds i8, ptr %41, i64 136
  %43 = load ptr, ptr %42, align 8
  tail call void %43(ptr noundef nonnull %7) #5
  br label %44

44:                                               ; preds = %30, %40
  %45 = load ptr, ptr %7, align 8
  %46 = getelementptr inbounds i8, ptr %45, i64 760
  %47 = load ptr, ptr %46, align 8
  %48 = load ptr, ptr getelementptr inbounds (i8, ptr @componentIDs, i64 32), align 8
  %49 = tail call ptr %47(ptr noundef nonnull %7, ptr noundef %9, ptr noundef %48) #5
  %50 = icmp eq ptr %49, null
  br i1 %50, label %51, label %75

51:                                               ; preds = %44
  tail call void (...) @awt_output_flush() #5
  %52 = load ptr, ptr %7, align 8
  %53 = getelementptr inbounds i8, ptr %52, i64 120
  %54 = load ptr, ptr %53, align 8
  %55 = tail call ptr %54(ptr noundef nonnull %7) #5
  %.not78 = icmp eq ptr %55, null
  br i1 %.not78, label %60, label %56

56:                                               ; preds = %51
  %57 = load ptr, ptr %7, align 8
  %58 = getelementptr inbounds i8, ptr %57, i64 136
  %59 = load ptr, ptr %58, align 8
  tail call void %59(ptr noundef nonnull %7) #5
  br label %60

60:                                               ; preds = %56, %51
  %61 = load ptr, ptr %7, align 8
  %62 = getelementptr inbounds i8, ptr %61, i64 1128
  %63 = load ptr, ptr %62, align 8
  %64 = load ptr, ptr @tkClass, align 8
  %65 = load ptr, ptr @awtUnlockMID, align 8
  tail call void (ptr, ptr, ptr, ...) %63(ptr noundef nonnull %7, ptr noundef %64, ptr noundef %65) #5
  %66 = load ptr, ptr %7, align 8
  %67 = getelementptr inbounds i8, ptr %66, i64 1824
  %68 = load ptr, ptr %67, align 8
  %69 = tail call zeroext i8 %68(ptr noundef nonnull %7) #5
  %.not79 = icmp eq i8 %69, 0
  br i1 %.not79, label %74, label %70

70:                                               ; preds = %60
  %71 = load ptr, ptr %7, align 8
  %72 = getelementptr inbounds i8, ptr %71, i64 136
  %73 = load ptr, ptr %72, align 8
  tail call void %73(ptr noundef nonnull %7) #5
  br label %74

74:                                               ; preds = %70, %60
  br i1 %.not78, label %124, label %.sink.split

75:                                               ; preds = %44
  %76 = load ptr, ptr %7, align 8
  %77 = getelementptr inbounds i8, ptr %76, i64 760
  %78 = load ptr, ptr %77, align 8
  %79 = load ptr, ptr @graphicsConfigID, align 8
  %80 = tail call ptr %78(ptr noundef nonnull %7, ptr noundef nonnull %49, ptr noundef %79) #5
  %.not75 = icmp eq ptr %80, null
  br i1 %.not75, label %88, label %81

81:                                               ; preds = %75
  %82 = load ptr, ptr %7, align 8
  %83 = getelementptr inbounds i8, ptr %82, i64 808
  %84 = load ptr, ptr %83, align 8
  %85 = load ptr, ptr @x11GraphicsConfigIDs, align 8
  %86 = tail call i64 %84(ptr noundef nonnull %7, ptr noundef nonnull %80, ptr noundef %85) #5
  %87 = inttoptr i64 %86 to ptr
  br label %93

88:                                               ; preds = %75
  %89 = load ptr, ptr @awt_display, align 8
  %90 = getelementptr inbounds i8, ptr %89, i64 224
  %91 = load i32, ptr %90, align 8
  %92 = tail call ptr @getDefaultConfig(i32 noundef %91) #5
  br label %93

93:                                               ; preds = %88, %81
  %.065 = phi ptr [ %87, %81 ], [ %92, %88 ]
  %94 = getelementptr inbounds i8, ptr %.065, i64 96
  %95 = load ptr, ptr %94, align 8
  %96 = tail call i32 %95(i32 noundef %1, i32 noundef %2, i32 noundef %3, ptr noundef %.065) #5
  tail call void (...) @awt_output_flush() #5
  %97 = load ptr, ptr %7, align 8
  %98 = getelementptr inbounds i8, ptr %97, i64 120
  %99 = load ptr, ptr %98, align 8
  %100 = tail call ptr %99(ptr noundef nonnull %7) #5
  %.not76 = icmp eq ptr %100, null
  br i1 %.not76, label %105, label %101

101:                                              ; preds = %93
  %102 = load ptr, ptr %7, align 8
  %103 = getelementptr inbounds i8, ptr %102, i64 136
  %104 = load ptr, ptr %103, align 8
  tail call void %104(ptr noundef nonnull %7) #5
  br label %105

105:                                              ; preds = %101, %93
  %106 = load ptr, ptr %7, align 8
  %107 = getelementptr inbounds i8, ptr %106, i64 1128
  %108 = load ptr, ptr %107, align 8
  %109 = load ptr, ptr @tkClass, align 8
  %110 = load ptr, ptr @awtUnlockMID, align 8
  tail call void (ptr, ptr, ptr, ...) %108(ptr noundef nonnull %7, ptr noundef %109, ptr noundef %110) #5
  %111 = load ptr, ptr %7, align 8
  %112 = getelementptr inbounds i8, ptr %111, i64 1824
  %113 = load ptr, ptr %112, align 8
  %114 = tail call zeroext i8 %113(ptr noundef nonnull %7) #5
  %.not77 = icmp eq i8 %114, 0
  br i1 %.not77, label %119, label %115

115:                                              ; preds = %105
  %116 = load ptr, ptr %7, align 8
  %117 = getelementptr inbounds i8, ptr %116, i64 136
  %118 = load ptr, ptr %117, align 8
  tail call void %118(ptr noundef nonnull %7) #5
  br label %119

119:                                              ; preds = %115, %105
  br i1 %.not76, label %124, label %.sink.split

.sink.split:                                      ; preds = %119, %74
  %.sink = phi ptr [ %55, %74 ], [ %100, %119 ]
  %.0.ph = phi i32 [ 0, %74 ], [ %96, %119 ]
  %120 = load ptr, ptr %7, align 8
  %121 = getelementptr inbounds i8, ptr %120, i64 104
  %122 = load ptr, ptr %121, align 8
  %123 = tail call i32 %122(ptr noundef nonnull %7, ptr noundef nonnull %.sink) #5
  br label %124

124:                                              ; preds = %.sink.split, %119, %74, %15, %6, %4
  %.0 = phi i32 [ 0, %4 ], [ 0, %6 ], [ 0, %15 ], [ 0, %74 ], [ %96, %119 ], [ %.0.ph, %.sink.split ]
  ret i32 %.0
}